target datalayout = "e-m:e-p270:32:32-p271:32:32-p272:64:64-i64:64-i128:128-f80:128-n8:16:32:64-S128"
target triple = "x86_64-pc-linux-gnu"

%struct.RBasic = type { i64, i64 }
%struct.__va_list_tag = type { i32, i32, ptr, ptr }

; Function Attrs: nounwind sspstrong uwtable
define internal i64 @anonymous_struct(i64 noundef %0) #0 {
  %2 = alloca i64, align 8
  %3 = alloca i64, align 8
  store i64 %0, ptr %2, align 8, !tbaa !7
  call void @llvm.lifetime.start.p0(i64 8, ptr %3) #26
  %4 = load i64, ptr %2, align 8, !tbaa !7
  %5 = call i64 @rb_class_new(i64 noundef %4)
  store i64 %5, ptr %3, align 8, !tbaa !7
  %6 = load i64, ptr %3, align 8, !tbaa !7
  %7 = load i64, ptr %2, align 8, !tbaa !7
  %8 = inttoptr i64 %7 to ptr
  %9 = getelementptr inbounds nuw %struct.RBasic, ptr %8, i32 0, i32 1
  %10 = load i64, ptr %9, align 8, !tbaa !25
  %11 = call i64 @rb_make_metaclass(i64 noundef %6, i64 noundef %10)
  %12 = load i64, ptr %2, align 8, !tbaa !7
  %13 = load i64, ptr %3, align 8, !tbaa !7
  %14 = call i64 @rb_class_inherited(i64 noundef %12, i64 noundef %13)
  %15 = load i64, ptr %3, align 8, !tbaa !7
  call void @llvm.lifetime.end.p0(i64 8, ptr %3) #26
  ret i64 %15
}

; Function Attrs: nounwind sspstrong uwtable
define internal i64 @struct_define_without_accessor(i64 noundef %0, ptr noundef %1, i64 noundef %2, ptr noundef %3, i64 noundef %4) #0 {
  %6 = alloca i64, align 8
  %7 = alloca ptr, align 8
  %8 = alloca i64, align 8
  %9 = alloca ptr, align 8
  %10 = alloca i64, align 8
  %11 = alloca i64, align 8
  store i64 %0, ptr %6, align 8, !tbaa !7
  store ptr %1, ptr %7, align 8, !tbaa !16
  store i64 %2, ptr %8, align 8, !tbaa !7
  store ptr %3, ptr %9, align 8, !tbaa !21
  store i64 %4, ptr %10, align 8, !tbaa !7
  call void @llvm.lifetime.start.p0(i64 8, ptr %11) #26
  %12 = load ptr, ptr %7, align 8, !tbaa !16
  %13 = icmp ne ptr %12, null
  br i1 %13, label %14, label %27

14:                                               ; preds = %5
  %15 = load i64, ptr %6, align 8, !tbaa !7
  %16 = icmp ne i64 %15, 0
  br i1 %16, label %17, label %22

17:                                               ; preds = %14
  %18 = load i64, ptr %6, align 8, !tbaa !7
  %19 = load ptr, ptr %7, align 8, !tbaa !16
  %20 = load i64, ptr %8, align 8, !tbaa !7
  %21 = call i64 @rb_define_class_under(i64 noundef %18, ptr noundef %19, i64 noundef %20)
  store i64 %21, ptr %11, align 8, !tbaa !7
  br label %26

22:                                               ; preds = %14
  %23 = load ptr, ptr %7, align 8, !tbaa !16
  %24 = load i64, ptr %8, align 8, !tbaa !7
  %25 = call i64 @rb_define_class(ptr noundef %23, i64 noundef %24)
  store i64 %25, ptr %11, align 8, !tbaa !7
  br label %26

26:                                               ; preds = %22, %17
  br label %30

27:                                               ; preds = %5
  %28 = load i64, ptr %8, align 8, !tbaa !7
  %29 = call i64 @anonymous_struct(i64 noundef %28)
  store i64 %29, ptr %11, align 8, !tbaa !7
  br label %30

30:                                               ; preds = %27, %26
  %31 = load i64, ptr %11, align 8, !tbaa !7
  %32 = load i64, ptr %10, align 8, !tbaa !7
  %33 = call i64 @struct_set_members(i64 noundef %31, i64 noundef %32)
  %34 = load ptr, ptr %9, align 8, !tbaa !21
  %35 = icmp ne ptr %34, null
  br i1 %35, label %36, label %39

36:                                               ; preds = %30
  %37 = load i64, ptr %11, align 8, !tbaa !7
  %38 = load ptr, ptr %9, align 8, !tbaa !21
  call void @rb_define_alloc_func(i64 noundef %37, ptr noundef %38)
  br label %41

39:                                               ; preds = %30
  %40 = load i64, ptr %11, align 8, !tbaa !7
  call void @rb_define_alloc_func(i64 noundef %40, ptr noundef @struct_alloc)
  br label %41

41:                                               ; preds = %39, %36
  %42 = load i64, ptr %11, align 8, !tbaa !7
  call void @llvm.lifetime.end.p0(i64 8, ptr %11) #26
  ret i64 %42
}

; Function Attrs: nounwind sspstrong uwtable
define dso_local i64 @rb_struct_define_without_accessor(ptr noundef %0, i64 noundef %1, ptr noundef %2, ...) #0 {
  %4 = alloca ptr, align 8
  %5 = alloca i64, align 8
  %6 = alloca ptr, align 8
  %7 = alloca [1 x %struct.__va_list_tag], align 16
  %8 = alloca i64, align 8
  store ptr %0, ptr %4, align 8, !tbaa !16
  store i64 %1, ptr %5, align 8, !tbaa !7
  store ptr %2, ptr %6, align 8, !tbaa !21
  call void @llvm.lifetime.start.p0(i64 24, ptr %7) #26
  call void @llvm.lifetime.start.p0(i64 8, ptr %8) #26
  %9 = getelementptr inbounds [1 x %struct.__va_list_tag], ptr %7, i64 0, i64 0
  call void @llvm.va_start.p0(ptr %9)
  %10 = getelementptr inbounds [1 x %struct.__va_list_tag], ptr %7, i64 0, i64 0
  %11 = call i64 @struct_make_members_list(ptr noundef %10)
  store i64 %11, ptr %8, align 8, !tbaa !7
  %12 = getelementptr inbounds [1 x %struct.__va_list_tag], ptr %7, i64 0, i64 0
  call void @llvm.va_end.p0(ptr %12)
  %13 = load ptr, ptr %4, align 8, !tbaa !16
  %14 = load i64, ptr %5, align 8, !tbaa !7
  %15 = load ptr, ptr %6, align 8, !tbaa !21
  %16 = load i64, ptr %8, align 8, !tbaa !7
  %17 = call i64 @struct_define_without_accessor(i64 noundef 0, ptr noundef %13, i64 noundef %14, ptr noundef %15, i64 noundef %16)
  call void @llvm.lifetime.end.p0(i64 8, ptr %8) #26
  call void @llvm.lifetime.end.p0(i64 24, ptr %7) #26
  ret i64 %17
}