; Function Attrs: nounwind sspstrong uwtable
define dso_local noundef i64 @rb_struct_define_without_accessor(ptr noundef %0, i64 noundef %1, ptr noundef %2, ...) local_unnamed_addr #0 {
  %4 = alloca [1 x %struct.__va_list_tag], align 16
  call void @llvm.lifetime.start.p0(i64 24, ptr nonnull %4) #19
  call void @llvm.va_start.p0(ptr nonnull %4)
  %5 = call fastcc i64 @struct_make_members_list(ptr noundef %4)
  call void @llvm.va_end.p0(ptr nonnull %4)
  %.not.i = icmp eq ptr %0, null
  br i1 %.not.i, label %8, label %6

6:                                                ; preds = %3
  %7 = call i64 @rb_define_class(ptr noundef nonnull %0, i64 noundef %1) #19
  br label %struct_define_without_accessor.exit

8:                                                ; preds = %3
  %9 = call i64 @rb_class_new(i64 noundef %1) #19
  %10 = inttoptr i64 %1 to ptr
  %11 = getelementptr inbounds nuw i8, ptr %10, i64 8
  %12 = load i64, ptr %11, align 8, !tbaa !26
  %13 = call i64 @rb_make_metaclass(i64 noundef %9, i64 noundef %12) #19
  %14 = call i64 @rb_class_inherited(i64 noundef %1, i64 noundef %9) #19
  br label %struct_define_without_accessor.exit

struct_define_without_accessor.exit:              ; preds = %6, %8
  %.0.i = phi i64 [ %7, %6 ], [ %9, %8 ]
  %15 = call fastcc i64 @struct_set_members(i64 noundef %.0.i, i64 noundef %5)
  %.not18.i = icmp eq ptr %2, null
  %struct_alloc..i = select i1 %.not18.i, ptr @struct_alloc, ptr %2
  call void @rb_define_alloc_func(i64 noundef %.0.i, ptr noundef nonnull %struct_alloc..i) #19
  call void @llvm.lifetime.end.p0(i64 24, ptr nonnull %4) #19
  ret i64 %.0.i
}